; Function Attrs: mustprogress uwtable
define hidden noundef i32 @_ZN7bit2int12get_b2i_sizeEP4expr(ptr noundef nonnull align 8 dereferenceable(296) %0, ptr noundef %1) local_unnamed_addr #3 align 2 {
  %3 = alloca ptr, align 8
  call void @llvm.lifetime.start.p0(i64 8, ptr nonnull %3) #19
  store ptr null, ptr %3, align 8, !tbaa !58
  %4 = getelementptr inbounds nuw i8, ptr %0, i64 8
  %5 = call noundef zeroext i1 @_ZNK14bv_recognizers9is_bv2intEPK4exprRPS0_(ptr noundef nonnull align 4 dereferenceable(4) %4, ptr noundef %1, ptr noundef nonnull align 8 dereferenceable(8) %3)
  br i1 %5, label %7, label %6

6:                                                ; preds = %2
  call void @_Z26notify_assertion_violationPKciS0_(ptr noundef nonnull @.str, i32 noundef 49, ptr noundef nonnull @.str.1)
  call void @_Z18invoke_exit_actionj(i32 noundef 114)
  br label %7

7:                                                ; preds = %6, %2
  %8 = load ptr, ptr %3, align 8, !tbaa !58
  %9 = call noundef ptr @_ZNK4expr8get_sortEv(ptr noundef nonnull align 4 dereferenceable(16) %8)
  %10 = getelementptr inbounds nuw i8, ptr %9, i64 24
  %11 = load ptr, ptr %10, align 8, !tbaa !141
  %12 = getelementptr inbounds nuw i8, ptr %11, i64 8
  %13 = load ptr, ptr %12, align 8, !tbaa !144
  %14 = getelementptr inbounds nuw i8, ptr %13, i64 8
  %15 = load i8, ptr %14, align 8, !tbaa !147
  %.not.i.i.i.i.i = icmp eq i8 %15, 0
  br i1 %.not.i.i.i.i.i, label %_ZNK7bv_util11get_bv_sizeEPK4expr.exit, label %16

16:                                               ; preds = %7
  %17 = call ptr @__cxa_allocate_exception(i64 16) #19
  store ptr getelementptr inbounds nuw inrange(-16, 24) (i8, ptr @_ZTVSt18bad_variant_access, i64 16), ptr %17, align 8, !tbaa !137
  %18 = getelementptr inbounds nuw i8, ptr %17, i64 8
  store ptr @.str.9, ptr %18, align 8, !tbaa !149
  call void @__cxa_throw(ptr nonnull %17, ptr nonnull @_ZTISt18bad_variant_access, ptr nonnull @_ZNSt9exceptionD2Ev) #21
  unreachable

_ZNK7bv_util11get_bv_sizeEPK4expr.exit:           ; preds = %7
  %19 = load i32, ptr %13, align 4, !tbaa !152
  call void @llvm.lifetime.end.p0(i64 8, ptr nonnull %3) #19
  ret i32 %19
}